target datalayout = "e-m:e-p270:32:32-p271:32:32-p272:64:64-i64:64-i128:128-f80:128-n8:16:32:64-S128"
target triple = "x86_64-pc-linux-gnu"

%struct._value_string_ext = type { ptr, i32, i32, ptr, ptr }

@gsm_dtap_elem_strings_ext = hidden global %struct._value_string_ext { ptr @_try_val_to_str_ext_init, i32 0, i32 96, ptr @gsm_dtap_elem_strings, ptr @.str.98 }, align 8
@.str.123 = private unnamed_addr constant [9 x i8] c"Reserved\00", align 1
@.str.136 = private unnamed_addr constant [8 x i8] c"%s (%u)\00", align 1
@ett_gsm_dtap_elem = hidden global [97 x i32] zeroinitializer, align 16
@hf_gsm_a_dtap_coding_standard = internal global i32 0, align 4
@hf_gsm_a_dtap_call_state = internal global i32 0, align 4
@.str.824 = private unnamed_addr constant [1 x i8] zeroinitializer, align 1
@q931_call_state_vals_ext = external global %struct._value_string_ext, align 8

; Function Attrs: null_pointer_is_valid sspstrong uwtable
define internal zeroext i16 @de_call_state(ptr noundef %0, ptr noundef %1, ptr noundef %2, i32 noundef %3, i32 noundef %4, ptr noundef %5, i32 noundef %6) #1 {
  %8 = alloca ptr, align 8
  %9 = alloca ptr, align 8
  %10 = alloca ptr, align 8
  %11 = alloca i32, align 4
  %12 = alloca i32, align 4
  %13 = alloca ptr, align 8
  %14 = alloca i32, align 4
  %15 = alloca i8, align 1
  %16 = alloca i8, align 1
  %17 = alloca i8, align 1
  %18 = alloca ptr, align 8
  store ptr %0, ptr %8, align 8
  store ptr %1, ptr %9, align 8
  store ptr %2, ptr %10, align 8
  store i32 %3, ptr %11, align 4
  store i32 %4, ptr %12, align 4
  store ptr %5, ptr %13, align 8
  store i32 %6, ptr %14, align 4
  call void @llvm.lifetime.start.p0(i64 1, ptr %15) #7
  call void @llvm.lifetime.start.p0(i64 1, ptr %16) #7
  call void @llvm.lifetime.start.p0(i64 1, ptr %17) #7
  call void @llvm.lifetime.start.p0(i64 8, ptr %18) #7
  %19 = load ptr, ptr %9, align 8
  %20 = load ptr, ptr %8, align 8
  %21 = load i32, ptr %11, align 4
  %22 = load i32, ptr getelementptr ([97 x i32], ptr @ett_gsm_dtap_elem, i64 0, i64 22), align 8
  %23 = call ptr @val_to_str_ext_const(i32 noundef 22, ptr noundef @gsm_dtap_elem_strings_ext, ptr noundef @.str.824)
  %24 = call ptr @proto_tree_add_subtree(ptr noundef %19, ptr noundef %20, i32 noundef %21, i32 noundef 1, i32 noundef %22, ptr noundef null, ptr noundef %23)
  store ptr %24, ptr %18, align 8
  %25 = load ptr, ptr %18, align 8
  %26 = load i32, ptr @hf_gsm_a_dtap_coding_standard, align 4
  %27 = load ptr, ptr %8, align 8
  %28 = load i32, ptr %11, align 4
  %29 = call ptr @proto_tree_add_item(ptr noundef %25, i32 noundef %26, ptr noundef %27, i32 noundef %28, i32 noundef 1, i32 noundef 0)
  %30 = load ptr, ptr %8, align 8
  %31 = load i32, ptr %11, align 4
  %32 = call zeroext i8 @tvb_get_uint8(ptr noundef %30, i32 noundef %31)
  store i8 %32, ptr %15, align 1
  %33 = load i8, ptr %15, align 1
  %34 = zext i8 %33 to i32
  %35 = and i32 %34, 192
  %36 = ashr i32 %35, 6
  %37 = trunc i32 %36 to i8
  store i8 %37, ptr %16, align 1
  %38 = load i8, ptr %15, align 1
  %39 = zext i8 %38 to i32
  %40 = and i32 %39, 63
  %41 = trunc i32 %40 to i8
  store i8 %41, ptr %17, align 1
  %42 = load i8, ptr %16, align 1
  %43 = zext i8 %42 to i32
  switch i32 %43, label %63 [
    i32 0, label %44
    i32 1, label %57
    i32 2, label %57
  ]

44:                                               ; preds = %7
  %45 = load ptr, ptr %18, align 8
  %46 = load i32, ptr @hf_gsm_a_dtap_call_state, align 4
  %47 = load ptr, ptr %8, align 8
  %48 = load i32, ptr %11, align 4
  %49 = load i8, ptr %17, align 1
  %50 = zext i8 %49 to i32
  %51 = load i8, ptr %17, align 1
  %52 = zext i8 %51 to i32
  %53 = call ptr @val_to_str_ext_const(i32 noundef %52, ptr noundef @q931_call_state_vals_ext, ptr noundef @.str.123)
  %54 = load i8, ptr %17, align 1
  %55 = zext i8 %54 to i32
  %56 = call ptr (ptr, i32, ptr, i32, i32, i32, ptr, ...) @proto_tree_add_uint_format_value(ptr noundef %45, i32 noundef %46, ptr noundef %47, i32 noundef %48, i32 noundef 1, i32 noundef %50, ptr noundef @.str.136, ptr noundef %53, i32 noundef %55)
  br label %76

57:                                               ; preds = %7, %7
  %58 = load ptr, ptr %18, align 8
  %59 = load i32, ptr @hf_gsm_a_dtap_call_state, align 4
  %60 = load ptr, ptr %8, align 8
  %61 = load i32, ptr %11, align 4
  %62 = call ptr @proto_tree_add_item(ptr noundef %58, i32 noundef %59, ptr noundef %60, i32 noundef %61, i32 noundef 1, i32 noundef 0)
  br label %76

63:                                               ; preds = %7
  %64 = load ptr, ptr %18, align 8
  %65 = load i32, ptr @hf_gsm_a_dtap_call_state, align 4
  %66 = load ptr, ptr %8, align 8
  %67 = load i32, ptr %11, align 4
  %68 = load i8, ptr %17, align 1
  %69 = zext i8 %68 to i32
  %70 = load i8, ptr %17, align 1
  %71 = zext i8 %70 to i32
  %72 = call ptr @val_to_str_const(i32 noundef %71, ptr noundef @gsm_a_dtap_call_state_vals, ptr noundef @.str.123)
  %73 = load i8, ptr %17, align 1
  %74 = zext i8 %73 to i32
  %75 = call ptr (ptr, i32, ptr, i32, i32, i32, ptr, ...) @proto_tree_add_uint_format_value(ptr noundef %64, i32 noundef %65, ptr noundef %66, i32 noundef %67, i32 noundef 1, i32 noundef %69, ptr noundef @.str.136, ptr noundef %72, i32 noundef %74)
  br label %76

76:                                               ; preds = %63, %57, %44
  call void @llvm.lifetime.end.p0(i64 8, ptr %18) #7
  call void @llvm.lifetime.end.p0(i64 1, ptr %17) #7
  call void @llvm.lifetime.end.p0(i64 1, ptr %16) #7
  call void @llvm.lifetime.end.p0(i64 1, ptr %15) #7
  ret i16 1
}