; Function Attrs: null_pointer_is_valid sspstrong uwtable
define internal noundef zeroext i16 @de_call_state(ptr noundef %0, ptr noundef %1, ptr readnone captures(none) %2, i32 noundef %3, i32 %4, ptr readnone captures(none) %5, i32 %6) #1 {
  %8 = load i32, ptr getelementptr inbounds nuw (i8, ptr @ett_gsm_dtap_elem, i64 88), align 8
  %9 = tail call ptr @val_to_str_ext_const(i32 noundef 22, ptr noundef nonnull @gsm_dtap_elem_strings_ext, ptr noundef nonnull @.str.824)
  %10 = tail call ptr @proto_tree_add_subtree(ptr noundef %1, ptr noundef %0, i32 noundef %3, i32 noundef 1, i32 noundef %8, ptr noundef null, ptr noundef %9)
  %11 = load i32, ptr @hf_gsm_a_dtap_coding_standard, align 4
  %12 = tail call ptr @proto_tree_add_item(ptr noundef %10, i32 noundef %11, ptr noundef %0, i32 noundef %3, i32 noundef 1, i32 noundef 0)
  %13 = tail call zeroext i8 @tvb_get_uint8(ptr noundef %0, i32 noundef %3)
  %14 = lshr i8 %13, 6
  %15 = and i8 %13, 63
  switch i8 %14, label %default.unreachable [
    i8 0, label %16
    i8 1, label %21
    i8 2, label %21
    i8 3, label %24
  ]

16:                                               ; preds = %7
  %17 = load i32, ptr @hf_gsm_a_dtap_call_state, align 4
  %18 = zext nneg i8 %15 to i32
  %19 = tail call ptr @val_to_str_ext_const(i32 noundef %18, ptr noundef nonnull @q931_call_state_vals_ext, ptr noundef nonnull @.str.123)
  %20 = tail call ptr (ptr, i32, ptr, i32, i32, i32, ptr, ...) @proto_tree_add_uint_format_value(ptr noundef %10, i32 noundef %17, ptr noundef %0, i32 noundef %3, i32 noundef 1, i32 noundef %18, ptr noundef nonnull @.str.136, ptr noundef %19, i32 noundef %18)
  br label %29

21:                                               ; preds = %7, %7
  %22 = load i32, ptr @hf_gsm_a_dtap_call_state, align 4
  %23 = tail call ptr @proto_tree_add_item(ptr noundef %10, i32 noundef %22, ptr noundef %0, i32 noundef %3, i32 noundef 1, i32 noundef 0)
  br label %29

default.unreachable:                              ; preds = %7
  unreachable

24:                                               ; preds = %7
  %25 = load i32, ptr @hf_gsm_a_dtap_call_state, align 4
  %26 = zext nneg i8 %15 to i32
  %27 = tail call ptr @val_to_str_const(i32 noundef %26, ptr noundef nonnull @gsm_a_dtap_call_state_vals, ptr noundef nonnull @.str.123)
  %28 = tail call ptr (ptr, i32, ptr, i32, i32, i32, ptr, ...) @proto_tree_add_uint_format_value(ptr noundef %10, i32 noundef %25, ptr noundef %0, i32 noundef %3, i32 noundef 1, i32 noundef %26, ptr noundef nonnull @.str.136, ptr noundef %27, i32 noundef %26)
  br label %29

29:                                               ; preds = %24, %21, %16
  ret i16 1
}